; ModuleID = '56/2220.c'
source_filename = "56/2220.c"
target datalayout = "e-m:e-p270:32:32-p271:32:32-p272:64:64-i64:64-f80:128-n8:16:32:64-S128"
target triple = "x86_64-pc-linux-gnu"

@.str = private unnamed_addr constant [3 x i8] c"%d\00", align 1

; Function Attrs: noinline nounwind uwtable
define dso_local i32 @main() #0 {
  %1 = alloca i32, align 4
  %2 = alloca i32, align 4
  %3 = alloca i32, align 4
  %4 = alloca [5 x i32], align 16
  %5 = alloca i32, align 4
  %6 = alloca i32, align 4
  store i32 0, i32* %1, align 4
  store i32 0, i32* %2, align 4
  store i32 0, i32* %6, align 4
  %7 = call i32 (i8*, ...) @__isoc99_scanf(i8* getelementptr inbounds ([3 x i8], [3 x i8]* @.str, i64 0, i64 0), i32* %3)
  store i32 0, i32* %5, align 4
  br label %8

8:                                                ; preds = %50, %0
  %9 = load i32, i32* %5, align 4
  %10 = icmp sle i32 %9, 4
  br i1 %10, label %11, label %53

11:                                               ; preds = %8
  %12 = load i32, i32* %3, align 4
  %13 = sitofp i32 %12 to double
  %14 = load i32, i32* %5, align 4
  %15 = sub nsw i32 4, %14
  %16 = sitofp i32 %15 to double
  %17 = call double @pow(double 1.000000e+01, double %16) #3
  %18 = fcmp oge double %13, %17
  br i1 %18, label %19, label %45

19:                                               ; preds = %11
  %20 = load i32, i32* %3, align 4
  %21 = sitofp i32 %20 to double
  %22 = load i32, i32* %5, align 4
  %23 = sub nsw i32 4, %22
  %24 = sitofp i32 %23 to double
  %25 = call double @pow(double 1.000000e+01, double %24) #3
  %26 = fdiv double %21, %25
  %27 = fptosi double %26 to i32
  %28 = load i32, i32* %5, align 4
  %29 = sext i32 %28 to i64
  %30 = getelementptr inbounds [5 x i32], [5 x i32]* %4, i64 0, i64 %29
  store i32 %27, i32* %30, align 4
  %31 = load i32, i32* %3, align 4
  %32 = sitofp i32 %31 to double
  %33 = load i32, i32* %5, align 4
  %34 = sext i32 %33 to i64
  %35 = getelementptr inbounds [5 x i32], [5 x i32]* %4, i64 0, i64 %34
  %36 = load i32, i32* %35, align 4
  %37 = sitofp i32 %36 to double
  %38 = load i32, i32* %5, align 4
  %39 = sub nsw i32 4, %38
  %40 = sitofp i32 %39 to double
  %41 = call double @pow(double 1.000000e+01, double %40) #3
  %42 = fmul double %37, %41
  %43 = fsub double %32, %42
  %44 = fptosi double %43 to i32
  store i32 %44, i32* %3, align 4
  br label %49

45:                                               ; preds = %11
  %46 = load i32, i32* %5, align 4
  %47 = sext i32 %46 to i64
  %48 = getelementptr inbounds [5 x i32], [5 x i32]* %4, i64 0, i64 %47
  store i32 0, i32* %48, align 4
  br label %49

49:                                               ; preds = %45, %19
  br label %50

50:                                               ; preds = %49
  %51 = load i32, i32* %5, align 4
  %52 = add nsw i32 %51, 1
  store i32 %52, i32* %5, align 4
  br label %8

53:                                               ; preds = %8
  store i32 0, i32* %5, align 4
  br label %54

54:                                               ; preds = %67, %53
  %55 = load i32, i32* %5, align 4
  %56 = icmp sle i32 %55, 4
  br i1 %56, label %57, label %70

57:                                               ; preds = %54
  %58 = load i32, i32* %5, align 4
  %59 = sext i32 %58 to i64
  %60 = getelementptr inbounds [5 x i32], [5 x i32]* %4, i64 0, i64 %59
  %61 = load i32, i32* %60, align 4
  %62 = icmp eq i32 %61, 0
  br i1 %62, label %63, label %66

63:                                               ; preds = %57
  %64 = load i32, i32* %6, align 4
  %65 = add nsw i32 %64, 1
  store i32 %65, i32* %6, align 4
  br label %66

66:                                               ; preds = %63, %57
  br label %67

67:                                               ; preds = %66
  %68 = load i32, i32* %5, align 4
  %69 = add nsw i32 %68, 1
  store i32 %69, i32* %5, align 4
  br label %54

70:                                               ; preds = %54
  %71 = load i32, i32* %6, align 4
  store i32 %71, i32* %5, align 4
  br label %72

72:                                               ; preds = %91, %70
  %73 = load i32, i32* %5, align 4
  %74 = icmp sle i32 %73, 4
  br i1 %74, label %75, label %94

75:                                               ; preds = %72
  %76 = load i32, i32* %5, align 4
  %77 = sext i32 %76 to i64
  %78 = getelementptr inbounds [5 x i32], [5 x i32]* %4, i64 0, i64 %77
  %79 = load i32, i32* %78, align 4
  %80 = sitofp i32 %79 to double
  %81 = load i32, i32* %5, align 4
  %82 = load i32, i32* %6, align 4
  %83 = sub nsw i32 %81, %82
  %84 = sitofp i32 %83 to double
  %85 = call double @pow(double 1.000000e+01, double %84) #3
  %86 = fmul double %80, %85
  %87 = load i32, i32* %2, align 4
  %88 = sitofp i32 %87 to double
  %89 = fadd double %86, %88
  %90 = fptosi double %89 to i32
  store i32 %90, i32* %2, align 4
  br label %91

91:                                               ; preds = %75
  %92 = load i32, i32* %5, align 4
  %93 = add nsw i32 %92, 1
  store i32 %93, i32* %5, align 4
  br label %72

94:                                               ; preds = %72
  %95 = load i32, i32* %2, align 4
  %96 = call i32 (i8*, ...) @printf(i8* getelementptr inbounds ([3 x i8], [3 x i8]* @.str, i64 0, i64 0), i32 %95)
  ret i32 0
}

declare dso_local i32 @__isoc99_scanf(i8*, ...) #1

; Function Attrs: nounwind
declare dso_local double @pow(double, double) #2

declare dso_local i32 @printf(i8*, ...) #1


!llvm.module.flags = !{!0}
!llvm.ident = !{!1}

!0 = !{i32 1, !"wchar_size", i32 4}
!1 = !{!"clang version 10.0.0-4ubuntu1 "}
